#include <math.h>
#include <stdio.h>
#include <stdlib.h>
#include <string.h>


int main(int argc, char* argv[])
{
	int n,i,j,len[1000]={0};
  char a[1000][260];
  scanf("%d",&n);
  for(i=0;i<n;i++){
	  scanf("%s",&a[i]);
	  len[i]=strlen(a[i]);
  }
  for(i=0;i<n;i++){
	  for(j=0;j<len[i];j++){
		  if(a[i][j]=='A'){
			  a[i][j]='T';
		  }
		  else if(a[i][j]=='T'){
			   a[i][j]='A';
		  }
		  else if(a[i][j]=='C'){
			   a[i][j]='G';
		  }
		  else if(a[i][j]=='G'){
			   a[i][j]='C';
		  }
	  }
	  
  }
  for(i=0;i<n;i++){
	 printf("%s\n",a[i]);
		  }
	return 0;   
}
