; ModuleID = '33/1892.c'
source_filename = "33/1892.c"
target datalayout = "e-m:e-p270:32:32-p271:32:32-p272:64:64-i64:64-f80:128-n8:16:32:64-S128"
target triple = "x86_64-pc-linux-gnu"

@.str = private unnamed_addr constant [3 x i8] c"%d\00", align 1
@.str.1 = private unnamed_addr constant [3 x i8] c"%s\00", align 1
@.str.2 = private unnamed_addr constant [4 x i8] c"%s\0A\00", align 1

; Function Attrs: noinline nounwind uwtable
define dso_local i32 @main(i32 %0, i8** %1) #0 {
  %3 = alloca i32, align 4
  %4 = alloca i32, align 4
  %5 = alloca i8**, align 8
  %6 = alloca i32, align 4
  %7 = alloca i32, align 4
  %8 = alloca i32, align 4
  %9 = alloca [1000 x i32], align 16
  %10 = alloca [1000 x [260 x i8]], align 16
  store i32 0, i32* %3, align 4
  store i32 %0, i32* %4, align 4
  store i8** %1, i8*** %5, align 8
  %11 = bitcast [1000 x i32]* %9 to i8*
  call void @llvm.memset.p0i8.i64(i8* align 16 %11, i8 0, i64 4000, i1 false)
  %12 = call i32 (i8*, ...) @__isoc99_scanf(i8* getelementptr inbounds ([3 x i8], [3 x i8]* @.str, i64 0, i64 0), i32* %6)
  store i32 0, i32* %7, align 4
  br label %13

13:                                               ; preds = %31, %2
  %14 = load i32, i32* %7, align 4
  %15 = load i32, i32* %6, align 4
  %16 = icmp slt i32 %14, %15
  br i1 %16, label %17, label %34

17:                                               ; preds = %13
  %18 = load i32, i32* %7, align 4
  %19 = sext i32 %18 to i64
  %20 = getelementptr inbounds [1000 x [260 x i8]], [1000 x [260 x i8]]* %10, i64 0, i64 %19
  %21 = call i32 (i8*, ...) @__isoc99_scanf(i8* getelementptr inbounds ([3 x i8], [3 x i8]* @.str.1, i64 0, i64 0), [260 x i8]* %20)
  %22 = load i32, i32* %7, align 4
  %23 = sext i32 %22 to i64
  %24 = getelementptr inbounds [1000 x [260 x i8]], [1000 x [260 x i8]]* %10, i64 0, i64 %23
  %25 = getelementptr inbounds [260 x i8], [260 x i8]* %24, i64 0, i64 0
  %26 = call i64 @strlen(i8* %25) #4
  %27 = trunc i64 %26 to i32
  %28 = load i32, i32* %7, align 4
  %29 = sext i32 %28 to i64
  %30 = getelementptr inbounds [1000 x i32], [1000 x i32]* %9, i64 0, i64 %29
  store i32 %27, i32* %30, align 4
  br label %31

31:                                               ; preds = %17
  %32 = load i32, i32* %7, align 4
  %33 = add nsw i32 %32, 1
  store i32 %33, i32* %7, align 4
  br label %13

34:                                               ; preds = %13
  store i32 0, i32* %7, align 4
  br label %35

35:                                               ; preds = %123, %34
  %36 = load i32, i32* %7, align 4
  %37 = load i32, i32* %6, align 4
  %38 = icmp slt i32 %36, %37
  br i1 %38, label %39, label %126

39:                                               ; preds = %35
  store i32 0, i32* %8, align 4
  br label %40

40:                                               ; preds = %119, %39
  %41 = load i32, i32* %8, align 4
  %42 = load i32, i32* %7, align 4
  %43 = sext i32 %42 to i64
  %44 = getelementptr inbounds [1000 x i32], [1000 x i32]* %9, i64 0, i64 %43
  %45 = load i32, i32* %44, align 4
  %46 = icmp slt i32 %41, %45
  br i1 %46, label %47, label %122

47:                                               ; preds = %40
  %48 = load i32, i32* %7, align 4
  %49 = sext i32 %48 to i64
  %50 = getelementptr inbounds [1000 x [260 x i8]], [1000 x [260 x i8]]* %10, i64 0, i64 %49
  %51 = load i32, i32* %8, align 4
  %52 = sext i32 %51 to i64
  %53 = getelementptr inbounds [260 x i8], [260 x i8]* %50, i64 0, i64 %52
  %54 = load i8, i8* %53, align 1
  %55 = sext i8 %54 to i32
  %56 = icmp eq i32 %55, 65
  br i1 %56, label %57, label %64

57:                                               ; preds = %47
  %58 = load i32, i32* %7, align 4
  %59 = sext i32 %58 to i64
  %60 = getelementptr inbounds [1000 x [260 x i8]], [1000 x [260 x i8]]* %10, i64 0, i64 %59
  %61 = load i32, i32* %8, align 4
  %62 = sext i32 %61 to i64
  %63 = getelementptr inbounds [260 x i8], [260 x i8]* %60, i64 0, i64 %62
  store i8 84, i8* %63, align 1
  br label %118

64:                                               ; preds = %47
  %65 = load i32, i32* %7, align 4
  %66 = sext i32 %65 to i64
  %67 = getelementptr inbounds [1000 x [260 x i8]], [1000 x [260 x i8]]* %10, i64 0, i64 %66
  %68 = load i32, i32* %8, align 4
  %69 = sext i32 %68 to i64
  %70 = getelementptr inbounds [260 x i8], [260 x i8]* %67, i64 0, i64 %69
  %71 = load i8, i8* %70, align 1
  %72 = sext i8 %71 to i32
  %73 = icmp eq i32 %72, 84
  br i1 %73, label %74, label %81

74:                                               ; preds = %64
  %75 = load i32, i32* %7, align 4
  %76 = sext i32 %75 to i64
  %77 = getelementptr inbounds [1000 x [260 x i8]], [1000 x [260 x i8]]* %10, i64 0, i64 %76
  %78 = load i32, i32* %8, align 4
  %79 = sext i32 %78 to i64
  %80 = getelementptr inbounds [260 x i8], [260 x i8]* %77, i64 0, i64 %79
  store i8 65, i8* %80, align 1
  br label %117

81:                                               ; preds = %64
  %82 = load i32, i32* %7, align 4
  %83 = sext i32 %82 to i64
  %84 = getelementptr inbounds [1000 x [260 x i8]], [1000 x [260 x i8]]* %10, i64 0, i64 %83
  %85 = load i32, i32* %8, align 4
  %86 = sext i32 %85 to i64
  %87 = getelementptr inbounds [260 x i8], [260 x i8]* %84, i64 0, i64 %86
  %88 = load i8, i8* %87, align 1
  %89 = sext i8 %88 to i32
  %90 = icmp eq i32 %89, 67
  br i1 %90, label %91, label %98

91:                                               ; preds = %81
  %92 = load i32, i32* %7, align 4
  %93 = sext i32 %92 to i64
  %94 = getelementptr inbounds [1000 x [260 x i8]], [1000 x [260 x i8]]* %10, i64 0, i64 %93
  %95 = load i32, i32* %8, align 4
  %96 = sext i32 %95 to i64
  %97 = getelementptr inbounds [260 x i8], [260 x i8]* %94, i64 0, i64 %96
  store i8 71, i8* %97, align 1
  br label %116

98:                                               ; preds = %81
  %99 = load i32, i32* %7, align 4
  %100 = sext i32 %99 to i64
  %101 = getelementptr inbounds [1000 x [260 x i8]], [1000 x [260 x i8]]* %10, i64 0, i64 %100
  %102 = load i32, i32* %8, align 4
  %103 = sext i32 %102 to i64
  %104 = getelementptr inbounds [260 x i8], [260 x i8]* %101, i64 0, i64 %103
  %105 = load i8, i8* %104, align 1
  %106 = sext i8 %105 to i32
  %107 = icmp eq i32 %106, 71
  br i1 %107, label %108, label %115

108:                                              ; preds = %98
  %109 = load i32, i32* %7, align 4
  %110 = sext i32 %109 to i64
  %111 = getelementptr inbounds [1000 x [260 x i8]], [1000 x [260 x i8]]* %10, i64 0, i64 %110
  %112 = load i32, i32* %8, align 4
  %113 = sext i32 %112 to i64
  %114 = getelementptr inbounds [260 x i8], [260 x i8]* %111, i64 0, i64 %113
  store i8 67, i8* %114, align 1
  br label %115

115:                                              ; preds = %108, %98
  br label %116

116:                                              ; preds = %115, %91
  br label %117

117:                                              ; preds = %116, %74
  br label %118

118:                                              ; preds = %117, %57
  br label %119

119:                                              ; preds = %118
  %120 = load i32, i32* %8, align 4
  %121 = add nsw i32 %120, 1
  store i32 %121, i32* %8, align 4
  br label %40

122:                                              ; preds = %40
  br label %123

123:                                              ; preds = %122
  %124 = load i32, i32* %7, align 4
  %125 = add nsw i32 %124, 1
  store i32 %125, i32* %7, align 4
  br label %35

126:                                              ; preds = %35
  store i32 0, i32* %7, align 4
  br label %127

127:                                              ; preds = %137, %126
  %128 = load i32, i32* %7, align 4
  %129 = load i32, i32* %6, align 4
  %130 = icmp slt i32 %128, %129
  br i1 %130, label %131, label %140

131:                                              ; preds = %127
  %132 = load i32, i32* %7, align 4
  %133 = sext i32 %132 to i64
  %134 = getelementptr inbounds [1000 x [260 x i8]], [1000 x [260 x i8]]* %10, i64 0, i64 %133
  %135 = getelementptr inbounds [260 x i8], [260 x i8]* %134, i64 0, i64 0
  %136 = call i32 (i8*, ...) @printf(i8* getelementptr inbounds ([4 x i8], [4 x i8]* @.str.2, i64 0, i64 0), i8* %135)
  br label %137

137:                                              ; preds = %131
  %138 = load i32, i32* %7, align 4
  %139 = add nsw i32 %138, 1
  store i32 %139, i32* %7, align 4
  br label %127

140:                                              ; preds = %127
  ret i32 0
}

; Function Attrs: argmemonly nounwind willreturn
declare void @llvm.memset.p0i8.i64(i8* nocapture writeonly, i8, i64, i1 immarg) #1

declare dso_local i32 @__isoc99_scanf(i8*, ...) #2

; Function Attrs: nounwind readonly
declare dso_local i64 @strlen(i8*) #3

declare dso_local i32 @printf(i8*, ...) #2


!llvm.module.flags = !{!0}
!llvm.ident = !{!1}

!0 = !{i32 1, !"wchar_size", i32 4}
!1 = !{!"clang version 10.0.0-4ubuntu1 "}
